; Function Attrs: nounwind uwtable
define internal noundef ptr @lxb_html_tree_token_callback(ptr nocapture noundef writeonly %0, ptr noundef %1, ptr noundef %2) #0 {
  br label %4

4:                                                ; preds = %4, %3
  %5 = tail call zeroext i1 @lxb_html_tree_construction_dispatcher(ptr noundef %2, ptr noundef %1)
  br i1 %5, label %lxb_html_tree_insertion_mode.exit, label %4

lxb_html_tree_insertion_mode.exit:                ; preds = %4
  %6 = getelementptr inbounds i8, ptr %2, i64 112
  %7 = load i32, ptr %6, align 8
  %.not = icmp eq i32 %7, 0
  br i1 %.not, label %10, label %8

8:                                                ; preds = %lxb_html_tree_insertion_mode.exit
  %9 = getelementptr inbounds i8, ptr %0, i64 232
  store i32 %7, ptr %9, align 8
  br label %10

10:                                               ; preds = %lxb_html_tree_insertion_mode.exit, %8
  %.0 = phi ptr [ null, %8 ], [ %1, %lxb_html_tree_insertion_mode.exit ]
  ret ptr %.0
}